Certificate:
    Data:
        Version: 3 (0x2)
        Serial Number: 1 (0x1)
        Signature Algorithm: sha256WithRSAEncryption
        Issuer: CN=devcert
        Validity
            Not Before: Apr 19 03:52:37 2020 GMT
            Not After : Jul 23 03:52:37 2022 GMT
        Subject: CN=localhost
        Subject Public Key Info:
            Public Key Algorithm: rsaEncryption
                RSA Public-Key: (2048 bit)
                Modulus:
                    00:e6:1f:c7:8c:ce:6b:b8:aa:34:29:c3:78:e3:82:
                    6b:66:e5:d5:dc:b0:d2:a5:cd:48:d4:d0:71:32:aa:
                    7f:fa:19:d9:52:63:20:2a:69:73:e7:6c:8f:b6:60:
                    78:38:9c:90:b3:11:9e:58:6d:93:33:90:40:f0:f9:
                    f3:80:24:f6:43:1d:3c:76:d4:3c:4d:41:c0:4e:05:
                    99:44:3a:ba:84:dc:54:81:c0:8f:5d:52:82:4d:7e:
                    d9:fb:e9:44:3c:d3:6b:55:f7:1d:42:30:62:ca:82:
                    e8:ff:5a:52:ad:54:9b:59:02:fd:5e:1b:0f:58:2a:
                    75:e4:57:a0:8e:9c:6d:58:6c:bc:f4:86:14:07:1b:
                    93:fe:18:53:b4:c1:0e:27:bf:59:76:84:da:69:80:
                    b8:d2:d5:52:f9:b3:2c:4a:d9:91:62:aa:82:c7:f2:
                    dd:ee:d4:3f:fb:48:f1:d7:80:8a:ab:a4:ad:12:da:
                    17:18:aa:5f:ab:90:62:76:14:35:5c:7c:4d:08:9a:
                    c9:33:16:fc:c3:2a:89:a6:d3:21:21:d5:5c:ee:2d:
                    b5:9d:62:f2:b4:e8:00:2b:af:97:db:04:df:e8:43:
                    c3:9e:de:3a:4a:e2:80:c2:f6:51:f6:fe:44:0d:c9:
                    d8:e3:5b:aa:b9:84:36:36:8c:f9:fe:69:bb:02:48:
                    73:d5
                Exponent: 65537 (0x10001)
        X509v3 extensions:
            X509v3 Basic Constraints: critical
                CA:FALSE
            X509v3 Subject Key Identifier: 
                3F:83:53:EA:CD:07:50:87:9C:BD:11:3E:99:F0:24:E4:CE:4C:4D:41
            X509v3 Authority Key Identifier: 
                keyid:9C:C8:CA:F2:BC:0F:50:D0:FA:29:3C:49:5C:DA:6E:41:8F:B6:87:F7
                DirName:/CN=devcert
                serial:03:14:23:CD:7F:EC:EB:AC:CE:A5:AF:12:24:EE:F9:87:06:B1:4A:9D

            X509v3 Key Usage: critical
                Digital Signature, Key Encipherment
            X509v3 Extended Key Usage: 
                TLS Web Server Authentication
            X509v3 Subject Alternative Name: 
                DNS:localhost, DNS:*.localhost
    Signature Algorithm: sha256WithRSAEncryption
         cd:e9:e3:36:4a:6c:15:ed:0d:10:bb:5a:65:f7:93:e4:e3:83:
         1a:5f:e6:60:28:6d:2d:65:1d:dc:73:22:5a:de:70:a6:9a:20:
         4b:97:73:fe:5f:4e:f7:92:ee:f6:16:7d:37:9b:cc:83:a7:c8:
         32:55:f3:db:ef:28:c9:39:96:15:ee:b2:41:f4:06:12:3e:08:
         39:87:d0:28:a0:31:1d:74:be:be:9c:40:c3:e8:f2:0e:f4:c6:
         e6:2d:03:10:01:dc:5a:26:51:5f:b4:32:64:f9:a2:c3:82:cc:
         9e:cb:75:9a:50:92:17:e8:4a:68:08:9a:93:ea:c6:cf:17:bb:
         0d:68:38:27:fd:4b:99:5e:4b:a4:69:0b:f6:8e:87:64:c8:80:
         7c:e9:5c:07:3b:44:18:e6:88:ea:11:b0:54:f5:94:f8:e1:6b:
         16:48:89:93:97:82:8f:5e:17:53:44:16:b0:a4:d9:87:d5:33:
         b2:51:3e:c2:4a:92:95:49:97:12:bb:0d:9f:15:19:17:b0:9e:
         3c:ee:20:dd:12:11:3f:e6:15:48:e6:4e:32:5c:f8:b2:35:3a:
         07:29:49:a1:53:24:b0:af:e3:6c:48:00:d6:c3:7c:81:c4:7c:
         23:9b:d6:83:bf:ff:50:e7:a5:b9:97:66:35:6f:53:45:3b:f3:
         a3:d7:47:b6
-----BEGIN CERTIFICATE-----
MIIDaTCCAlGgAwIBAgIBATANBgkqhkiG9w0BAQsFADASMRAwDgYDVQQDDAdkZXZj
ZXJ0MB4XDTIwMDQxOTAzNTIzN1oXDTIyMDcyMzAzNTIzN1owFDESMBAGA1UEAwwJ
bG9jYWxob3N0MIIBIjANBgkqhkiG9w0BAQEFAAOCAQ8AMIIBCgKCAQEA5h/HjM5r
uKo0KcN444JrZuXV3LDSpc1I1NBxMqp/+hnZUmMgKmlz52yPtmB4OJyQsxGeWG2T
M5BA8PnzgCT2Qx08dtQ8TUHATgWZRDq6hNxUgcCPXVKCTX7Z++lEPNNrVfcdQjBi
yoLo/1pSrVSbWQL9XhsPWCp15FegjpxtWGy89IYUBxuT/hhTtMEOJ79ZdoTaaYC4
0tVS+bMsStmRYqqCx/Ld7tQ/+0jx14CKq6StEtoXGKpfq5BidhQ1XHxNCJrJMxb8
wyqJptMhIdVc7i21nWLytOgAK6+X2wTf6EPDnt46SuKAwvZR9v5EDcnY41uquYQ2
Noz5/mm7Akhz1QIDAQABo4HHMIHEMAwGA1UdEwEB/wQCMAAwHQYDVR0OBBYEFD+D
U+rNB1CHnL0RPpnwJOTOTE1BME0GA1UdIwRGMESAFJzIyvK8D1DQ+ik8SVzabkGP
tof3oRakFDASMRAwDgYDVQQDDAdkZXZjZXJ0ghQDFCPNf+zrrM6lrxIk7vmHBrFK
nTAOBgNVHQ8BAf8EBAMCBaAwEwYDVR0lBAwwCgYIKwYBBQUHAwEwIQYDVR0RBBow
GIIJbG9jYWxob3N0ggsqLmxvY2FsaG9zdDANBgkqhkiG9w0BAQsFAAOCAQEAzenj
NkpsFe0NELtaZfeT5OODGl/mYChtLWUd3HMiWt5wppogS5dz/l9O95Lu9hZ9N5vM
g6fIMlXz2+8oyTmWFe6yQfQGEj4IOYfQKKAxHXS+vpxAw+jyDvTG5i0DEAHcWiZR
X7QyZPmiw4LMnst1mlCSF+hKaAiak+rGzxe7DWg4J/1LmV5LpGkL9o6HZMiAfOlc
BztEGOaI6hGwVPWU+OFrFkiJk5eCj14XU0QWsKTZh9UzslE+wkqSlUmXErsNnxUZ
F7CePO4g3RIRP+YVSOZOMlz4sjU6BylJoVMksK/jbEgA1sN8gcR8I5vWg7//UOel
uZdmNW9TRTvzo9dHtg==
-----END CERTIFICATE-----
